target datalayout = "e-m:e-p270:32:32-p271:32:32-p272:64:64-i64:64-i128:128-f80:128-n8:16:32:64-S128"
target triple = "x86_64-pc-linux-gnu"

%struct.acct_gather_energy = type { i32, i64, i64, i32, i64, i64, i64 }

@local_energy = internal global ptr null, align 8

; Function Attrs: nounwind uwtable
define dso_local i32 @acct_gather_energy_p_update_node_energy() #0 {
  %1 = alloca i32, align 4
  %2 = alloca i32, align 4
  %3 = alloca i32, align 4
  call void @llvm.lifetime.start.p0(i64 4, ptr %2) #5
  store i32 0, ptr %2, align 4
  %4 = load ptr, ptr @local_energy, align 8
  %5 = icmp ne ptr %4, null
  br i1 %5, label %6, label %11

6:                                                ; preds = %0
  %7 = load ptr, ptr @local_energy, align 8
  %8 = getelementptr inbounds nuw %struct.acct_gather_energy, ptr %7, i32 0, i32 3
  %9 = load i32, ptr %8, align 8
  %10 = icmp eq i32 %9, -2
  br i1 %10, label %11, label %13

11:                                               ; preds = %6, %0
  %12 = load i32, ptr %2, align 4
  store i32 %12, ptr %1, align 4
  store i32 1, ptr %3, align 4
  br label %16

13:                                               ; preds = %6
  %14 = load ptr, ptr @local_energy, align 8
  call void @_get_joules_task(ptr noundef %14)
  %15 = load i32, ptr %2, align 4
  store i32 %15, ptr %1, align 4
  store i32 1, ptr %3, align 4
  br label %16

16:                                               ; preds = %13, %11
  call void @llvm.lifetime.end.p0(i64 4, ptr %2) #5
  %17 = load i32, ptr %1, align 4
  ret i32 %17
}