; Function Attrs: nounwind uwtable
define dso_local noundef i32 @acct_gather_energy_p_update_node_energy() local_unnamed_addr #0 {
  %1 = load ptr, ptr @local_energy, align 8
  %.not = icmp eq ptr %1, null
  br i1 %.not, label %7, label %2

2:                                                ; preds = %0
  %3 = getelementptr inbounds nuw i8, ptr %1, i64 24
  %4 = load i32, ptr %3, align 8
  %5 = icmp eq i32 %4, -2
  br i1 %5, label %7, label %6

6:                                                ; preds = %2
  tail call fastcc void @_get_joules_task(ptr noundef nonnull %1)
  br label %7

7:                                                ; preds = %0, %2, %6
  ret i32 0
}